; Function Attrs: nounwind uwtable
define i32 @SUNNonlinSolSetConvTestFn(ptr noundef %0, ptr noundef %1, ptr noundef %2) local_unnamed_addr #4 {
  %4 = getelementptr inbounds nuw i8, ptr %0, i64 8
  %5 = load ptr, ptr %4, align 8, !tbaa !10
  %6 = getelementptr inbounds nuw i8, ptr %5, i64 64
  %7 = load ptr, ptr %6, align 8, !tbaa !21
  %.not = icmp eq ptr %7, null
  br i1 %.not, label %10, label %8

8:                                                ; preds = %3
  %9 = tail call i32 %7(ptr noundef nonnull %0, ptr noundef %1, ptr noundef %2) #7
  br label %10

10:                                               ; preds = %3, %8
  %.0 = phi i32 [ %9, %8 ], [ 0, %3 ]
  ret i32 %.0
}